target datalayout = "e-m:e-p270:32:32-p271:32:32-p272:64:64-i64:64-i128:128-f80:128-n8:16:32:64-S128"
target triple = "x86_64-pc-linux-gnu"

%"class.smt::conflict_resolution" = type <{ ptr, ptr, ptr, ptr, ptr, ptr, i32, [4 x i8], %class.svector, %class.ref_vector, i32, i32, %class.ptr_vector.1, i32, [4 x i8], %class.svector.3, %class.obj_pair_set, ptr, ptr, %class.svector.5, %class.obj_map, %class.obj_pair_map, %class.map, %class.ref_vector.15, %class.ref_vector.20, %class.obj_ref, %class.svector, %class.svector, %class.svector.25, %class.svector.25, %class.approx_set_tpl, [4 x i8] }>
%class.ref_vector = type { %class.ref_vector_core }
%class.ref_vector_core = type { %class.ref_manager_wrapper, %class.ptr_vector }
%class.ref_manager_wrapper = type { ptr }
%class.ptr_vector = type { %class.vector.0 }
%class.vector.0 = type { ptr }
%class.ptr_vector.1 = type { %class.vector.2 }
%class.vector.2 = type { ptr }
%class.svector.3 = type { %class.vector.4 }
%class.vector.4 = type { ptr }
%class.obj_pair_set = type { %class.chashtable }
%class.chashtable = type { ptr, i32, i32, i32, i32, i32, i32, i32, ptr, ptr, ptr }
%class.svector.5 = type { %class.vector.6 }
%class.vector.6 = type { ptr }
%class.obj_map = type { %class.core_hashtable }
%class.core_hashtable = type <{ ptr, i32, i32, i32, [4 x i8] }>
%class.obj_pair_map = type { %class.core_hashtable.7 }
%class.core_hashtable.7 = type <{ ptr, i32, i32, i32, [4 x i8] }>
%class.map = type { %class.table2map }
%class.table2map = type { %class.core_hashtable.11 }
%class.core_hashtable.11 = type <{ ptr, i32, i32, i32, [4 x i8] }>
%class.ref_vector.15 = type { %class.ref_vector_core.16 }
%class.ref_vector_core.16 = type { %class.ref_manager_wrapper.17, %class.ptr_vector.18 }
%class.ref_manager_wrapper.17 = type { ptr }
%class.ptr_vector.18 = type { %class.vector.19 }
%class.vector.19 = type { ptr }
%class.ref_vector.20 = type { %class.ref_vector_core.21 }
%class.ref_vector_core.21 = type { %class.ref_manager_wrapper.22, %class.ptr_vector.23 }
%class.ref_manager_wrapper.22 = type { ptr }
%class.ptr_vector.23 = type { %class.vector.24 }
%class.vector.24 = type { ptr }
%class.obj_ref = type { ptr, ptr }
%class.svector = type { %class.vector }
%class.vector = type { ptr }
%class.svector.25 = type { %class.vector.26 }
%class.vector.26 = type { ptr }
%class.approx_set_tpl = type { i32 }
%"class.smt::justification" = type <{ ptr, i8, [7 x i8] }>

; Function Attrs: mustprogress uwtable
define linkonce_odr hidden noundef nonnull align 8 dereferenceable(8) ptr @_ZN6vectorIPN3smt13justificationELb0EjE9push_backERKS2_(ptr noundef nonnull align 8 dereferenceable(8) %0, ptr noundef nonnull align 8 dereferenceable(8) %1) #6 comdat align 2 {
  %3 = alloca ptr, align 8
  %4 = alloca ptr, align 8
  store ptr %0, ptr %3, align 8, !tbaa !138
  store ptr %1, ptr %4, align 8, !tbaa !211
  %5 = load ptr, ptr %3, align 8
  %6 = getelementptr inbounds nuw %class.vector.2, ptr %5, i32 0, i32 0
  %7 = load ptr, ptr %6, align 8, !tbaa !209
  %8 = icmp eq ptr %7, null
  br i1 %8, label %19, label %9

9:                                                ; preds = %2
  %10 = getelementptr inbounds nuw %class.vector.2, ptr %5, i32 0, i32 0
  %11 = load ptr, ptr %10, align 8, !tbaa !209
  %12 = getelementptr inbounds i32, ptr %11, i64 -1
  %13 = load i32, ptr %12, align 4, !tbaa !8
  %14 = getelementptr inbounds nuw %class.vector.2, ptr %5, i32 0, i32 0
  %15 = load ptr, ptr %14, align 8, !tbaa !209
  %16 = getelementptr inbounds i32, ptr %15, i64 -2
  %17 = load i32, ptr %16, align 4, !tbaa !8
  %18 = icmp eq i32 %13, %17
  br i1 %18, label %19, label %20

19:                                               ; preds = %9, %2
  call void @_ZN6vectorIPN3smt13justificationELb0EjE13expand_vectorEv(ptr noundef nonnull align 8 dereferenceable(8) %5)
  br label %20

20:                                               ; preds = %19, %9
  %21 = getelementptr inbounds nuw %class.vector.2, ptr %5, i32 0, i32 0
  %22 = load ptr, ptr %21, align 8, !tbaa !209
  %23 = getelementptr inbounds nuw %class.vector.2, ptr %5, i32 0, i32 0
  %24 = load ptr, ptr %23, align 8, !tbaa !209
  %25 = getelementptr inbounds i32, ptr %24, i64 -1
  %26 = load i32, ptr %25, align 4, !tbaa !8
  %27 = zext i32 %26 to i64
  %28 = getelementptr inbounds nuw ptr, ptr %22, i64 %27
  %29 = load ptr, ptr %4, align 8, !tbaa !211
  %30 = load ptr, ptr %29, align 8, !tbaa !18
  store ptr %30, ptr %28, align 8, !tbaa !18
  %31 = getelementptr inbounds nuw %class.vector.2, ptr %5, i32 0, i32 0
  %32 = load ptr, ptr %31, align 8, !tbaa !209
  %33 = getelementptr inbounds i32, ptr %32, i64 -1
  %34 = load i32, ptr %33, align 4, !tbaa !8
  %35 = add i32 %34, 1
  store i32 %35, ptr %33, align 4, !tbaa !8
  ret ptr %5
}

; Function Attrs: mustprogress nounwind uwtable
define linkonce_odr hidden void @_ZN3smt13justification8set_markEv(ptr noundef nonnull align 8 dereferenceable(9) %0) #4 comdat align 2 {
  %2 = alloca ptr, align 8
  store ptr %0, ptr %2, align 8, !tbaa !18
  %3 = load ptr, ptr %2, align 8
  %4 = getelementptr inbounds nuw %"class.smt::justification", ptr %3, i32 0, i32 1
  %5 = load i8, ptr %4, align 8
  %6 = and i8 %5, -2
  %7 = or i8 %6, 1
  store i8 %7, ptr %4, align 8
  ret void
}

; Function Attrs: mustprogress nounwind uwtable
define linkonce_odr hidden noundef zeroext i1 @_ZNK3smt13justification9is_markedEv(ptr noundef nonnull align 8 dereferenceable(9) %0) #4 comdat align 2 {
  %2 = alloca ptr, align 8
  store ptr %0, ptr %2, align 8, !tbaa !18
  %3 = load ptr, ptr %2, align 8
  %4 = getelementptr inbounds nuw %"class.smt::justification", ptr %3, i32 0, i32 1
  %5 = load i8, ptr %4, align 8
  %6 = and i8 %5, 1
  %7 = zext i8 %6 to i32
  %8 = icmp ne i32 %7, 0
  ret i1 %8
}

; Function Attrs: mustprogress uwtable
define linkonce_odr hidden void @_ZN3smt19conflict_resolution18mark_justificationEPNS_13justificationE(ptr noundef nonnull align 8 dereferenceable(356) %0, ptr noundef %1) #6 comdat align 2 {
  %3 = alloca ptr, align 8
  %4 = alloca ptr, align 8
  store ptr %0, ptr %3, align 8, !tbaa !28
  store ptr %1, ptr %4, align 8, !tbaa !18
  %5 = load ptr, ptr %3, align 8
  %6 = load ptr, ptr %4, align 8, !tbaa !18
  %7 = call noundef zeroext i1 @_ZNK3smt13justification9is_markedEv(ptr noundef nonnull align 8 dereferenceable(9) %6)
  br i1 %7, label %12, label %8

8:                                                ; preds = %2
  %9 = load ptr, ptr %4, align 8, !tbaa !18
  call void @_ZN3smt13justification8set_markEv(ptr noundef nonnull align 8 dereferenceable(9) %9)
  %10 = getelementptr inbounds nuw %"class.smt::conflict_resolution", ptr %5, i32 0, i32 12
  %11 = call noundef nonnull align 8 dereferenceable(8) ptr @_ZN6vectorIPN3smt13justificationELb0EjE9push_backERKS2_(ptr noundef nonnull align 8 dereferenceable(8) %10, ptr noundef nonnull align 8 dereferenceable(8) %4)
  br label %12

12:                                               ; preds = %8, %2
  ret void
}

; Function Attrs: mustprogress uwtable
define hidden void @_ZN3smt19conflict_resolution27justification2literals_coreEPNS_13justificationER7svectorIN3sat7literalEjE(ptr noundef nonnull align 8 dereferenceable(356) %0, ptr noundef %1, ptr noundef nonnull align 8 dereferenceable(8) %2) #6 align 2 {
  %4 = alloca ptr, align 8
  %5 = alloca ptr, align 8
  %6 = alloca ptr, align 8
  store ptr %0, ptr %4, align 8, !tbaa !28
  store ptr %1, ptr %5, align 8, !tbaa !18
  store ptr %2, ptr %6, align 8, !tbaa !38
  %7 = load ptr, ptr %4, align 8
  %8 = load ptr, ptr %6, align 8, !tbaa !38
  %9 = getelementptr inbounds nuw %"class.smt::conflict_resolution", ptr %7, i32 0, i32 17
  store ptr %8, ptr %9, align 8, !tbaa !95
  %10 = load ptr, ptr %5, align 8, !tbaa !18
  call void @_ZN3smt19conflict_resolution18mark_justificationEPNS_13justificationE(ptr noundef nonnull align 8 dereferenceable(356) %7, ptr noundef %10)
  call void @_ZN3smt19conflict_resolution22process_justificationsEv(ptr noundef nonnull align 8 dereferenceable(356) %7)
  ret void
}

; Function Attrs: mustprogress uwtable
define hidden void @_ZN3smt19conflict_resolution22justification2literalsEPNS_13justificationER7svectorIN3sat7literalEjE(ptr noundef nonnull align 8 dereferenceable(356) %0, ptr noundef %1, ptr noundef nonnull align 8 dereferenceable(8) %2) #6 align 2 {
  %4 = alloca ptr, align 8
  %5 = alloca ptr, align 8
  %6 = alloca ptr, align 8
  store ptr %0, ptr %4, align 8, !tbaa !28
  store ptr %1, ptr %5, align 8, !tbaa !18
  store ptr %2, ptr %6, align 8, !tbaa !38
  %7 = load ptr, ptr %4, align 8
  %8 = load ptr, ptr %5, align 8, !tbaa !18
  %9 = load ptr, ptr %6, align 8, !tbaa !38
  call void @_ZN3smt19conflict_resolution27justification2literals_coreEPNS_13justificationER7svectorIN3sat7literalEjE(ptr noundef nonnull align 8 dereferenceable(356) %7, ptr noundef %8, ptr noundef nonnull align 8 dereferenceable(8) %9)
  call void @_ZN3smt19conflict_resolution21unmark_justificationsEj(ptr noundef nonnull align 8 dereferenceable(356) %7, i32 noundef 0)
  ret void
}