; Function Attrs: mustprogress uwtable
define hidden void @_ZN3smt19conflict_resolution22justification2literalsEPNS_13justificationER7svectorIN3sat7literalEjE(ptr noundef nonnull align 8 dereferenceable(356) initializes((176, 184)) %0, ptr noundef %1, ptr noundef nonnull align 8 dereferenceable(8) %2) local_unnamed_addr #4 align 2 {
  %4 = getelementptr inbounds nuw i8, ptr %0, i64 176
  store ptr %2, ptr %4, align 8, !tbaa !140
  %5 = getelementptr inbounds nuw i8, ptr %1, i64 8
  %6 = load i8, ptr %5, align 8
  %7 = and i8 %6, 1
  %.not.i.i = icmp eq i8 %7, 0
  br i1 %.not.i.i, label %8, label %_ZN3smt19conflict_resolution27justification2literals_coreEPNS_13justificationER7svectorIN3sat7literalEjE.exit

8:                                                ; preds = %3
  %9 = or disjoint i8 %6, 1
  store i8 %9, ptr %5, align 8
  %10 = getelementptr inbounds nuw i8, ptr %0, i64 88
  %11 = load ptr, ptr %10, align 8, !tbaa !25
  %12 = icmp eq ptr %11, null
  br i1 %12, label %19, label %13

13:                                               ; preds = %8
  %14 = getelementptr inbounds i8, ptr %11, i64 -4
  %15 = load i32, ptr %14, align 4, !tbaa !117
  %16 = getelementptr inbounds i8, ptr %11, i64 -8
  %17 = load i32, ptr %16, align 4, !tbaa !117
  %18 = icmp eq i32 %15, %17
  br i1 %18, label %19, label %_ZN6vectorIPN3smt13justificationELb0EjE9push_backERKS2_.exit.i.i

19:                                               ; preds = %13, %8
  tail call void @_ZN6vectorIPN3smt13justificationELb0EjE13expand_vectorEv(ptr noundef nonnull align 8 dereferenceable(8) %10)
  %.pre.i.i.i = load ptr, ptr %10, align 8, !tbaa !25
  %.phi.trans.insert.i.i.i = getelementptr inbounds i8, ptr %.pre.i.i.i, i64 -4
  %.pre2.i.i.i = load i32, ptr %.phi.trans.insert.i.i.i, align 4, !tbaa !117
  br label %_ZN6vectorIPN3smt13justificationELb0EjE9push_backERKS2_.exit.i.i

_ZN6vectorIPN3smt13justificationELb0EjE9push_backERKS2_.exit.i.i: ; preds = %19, %13
  %20 = phi i32 [ %.pre2.i.i.i, %19 ], [ %15, %13 ]
  %21 = phi ptr [ %.pre.i.i.i, %19 ], [ %11, %13 ]
  %22 = getelementptr inbounds i8, ptr %21, i64 -4
  %23 = zext i32 %20 to i64
  %24 = getelementptr inbounds nuw ptr, ptr %21, i64 %23
  store ptr %1, ptr %24, align 8, !tbaa !141
  %25 = add i32 %20, 1
  store i32 %25, ptr %22, align 4, !tbaa !117
  br label %_ZN3smt19conflict_resolution27justification2literals_coreEPNS_13justificationER7svectorIN3sat7literalEjE.exit

_ZN3smt19conflict_resolution27justification2literals_coreEPNS_13justificationER7svectorIN3sat7literalEjE.exit: ; preds = %3, %_ZN6vectorIPN3smt13justificationELb0EjE9push_backERKS2_.exit.i.i
  tail call void @_ZN3smt19conflict_resolution22process_justificationsEv(ptr noundef nonnull align 8 dereferenceable(356) %0)
  tail call void @_ZN3smt19conflict_resolution21unmark_justificationsEj(ptr noundef nonnull align 8 dereferenceable(356) %0, i32 noundef 0)
  ret void
}